target datalayout = "e-m:e-p270:32:32-p271:32:32-p272:64:64-i64:64-i128:128-f80:128-n8:16:32:64-S128"
target triple = "x86_64-pc-linux-gnu"

%"class.cvc5::internal::Options" = type { %"class.std::unique_ptr.45", %"class.std::unique_ptr.53", %"class.std::unique_ptr.61", %"class.std::unique_ptr.69", %"class.std::unique_ptr.77", %"class.std::unique_ptr.85", %"class.std::unique_ptr.93", %"class.std::unique_ptr.101", %"class.std::unique_ptr.109", %"class.std::unique_ptr.117", %"class.std::unique_ptr.125", %"class.std::unique_ptr.133", %"class.std::unique_ptr.141", %"class.std::unique_ptr.149", %"class.std::unique_ptr.157", %"class.std::unique_ptr.165", %"class.std::unique_ptr.173", %"class.std::unique_ptr.181", %"class.std::unique_ptr.189", %"class.std::unique_ptr.197", %"class.std::unique_ptr.205", %"class.std::unique_ptr.213", %"class.std::unique_ptr.221", %"class.std::unique_ptr.229", %"class.std::unique_ptr.237", ptr, ptr, ptr, ptr, ptr, ptr, ptr, ptr, ptr, ptr, ptr, ptr, ptr, ptr, ptr, ptr, ptr, ptr, ptr, ptr, ptr, ptr, ptr, ptr, ptr, %"class.std::unique_ptr.245" }
%"class.std::unique_ptr.45" = type { %"struct.std::__uniq_ptr_data.46" }
%"struct.std::__uniq_ptr_data.46" = type { %"class.std::__uniq_ptr_impl.47" }
%"class.std::__uniq_ptr_impl.47" = type { %"class.std::tuple.48" }
%"class.std::tuple.48" = type { %"struct.std::_Tuple_impl.49" }
%"struct.std::_Tuple_impl.49" = type { %"struct.std::_Head_base.52" }
%"struct.std::_Head_base.52" = type { ptr }
%"class.std::unique_ptr.53" = type { %"struct.std::__uniq_ptr_data.54" }
%"struct.std::__uniq_ptr_data.54" = type { %"class.std::__uniq_ptr_impl.55" }
%"class.std::__uniq_ptr_impl.55" = type { %"class.std::tuple.56" }
%"class.std::tuple.56" = type { %"struct.std::_Tuple_impl.57" }
%"struct.std::_Tuple_impl.57" = type { %"struct.std::_Head_base.60" }
%"struct.std::_Head_base.60" = type { ptr }
%"class.std::unique_ptr.61" = type { %"struct.std::__uniq_ptr_data.62" }
%"struct.std::__uniq_ptr_data.62" = type { %"class.std::__uniq_ptr_impl.63" }
%"class.std::__uniq_ptr_impl.63" = type { %"class.std::tuple.64" }
%"class.std::tuple.64" = type { %"struct.std::_Tuple_impl.65" }
%"struct.std::_Tuple_impl.65" = type { %"struct.std::_Head_base.68" }
%"struct.std::_Head_base.68" = type { ptr }
%"class.std::unique_ptr.69" = type { %"struct.std::__uniq_ptr_data.70" }
%"struct.std::__uniq_ptr_data.70" = type { %"class.std::__uniq_ptr_impl.71" }
%"class.std::__uniq_ptr_impl.71" = type { %"class.std::tuple.72" }
%"class.std::tuple.72" = type { %"struct.std::_Tuple_impl.73" }
%"struct.std::_Tuple_impl.73" = type { %"struct.std::_Head_base.76" }
%"struct.std::_Head_base.76" = type { ptr }
%"class.std::unique_ptr.77" = type { %"struct.std::__uniq_ptr_data.78" }
%"struct.std::__uniq_ptr_data.78" = type { %"class.std::__uniq_ptr_impl.79" }
%"class.std::__uniq_ptr_impl.79" = type { %"class.std::tuple.80" }
%"class.std::tuple.80" = type { %"struct.std::_Tuple_impl.81" }
%"struct.std::_Tuple_impl.81" = type { %"struct.std::_Head_base.84" }
%"struct.std::_Head_base.84" = type { ptr }
%"class.std::unique_ptr.85" = type { %"struct.std::__uniq_ptr_data.86" }
%"struct.std::__uniq_ptr_data.86" = type { %"class.std::__uniq_ptr_impl.87" }
%"class.std::__uniq_ptr_impl.87" = type { %"class.std::tuple.88" }
%"class.std::tuple.88" = type { %"struct.std::_Tuple_impl.89" }
%"struct.std::_Tuple_impl.89" = type { %"struct.std::_Head_base.92" }
%"struct.std::_Head_base.92" = type { ptr }
%"class.std::unique_ptr.93" = type { %"struct.std::__uniq_ptr_data.94" }
%"struct.std::__uniq_ptr_data.94" = type { %"class.std::__uniq_ptr_impl.95" }
%"class.std::__uniq_ptr_impl.95" = type { %"class.std::tuple.96" }
%"class.std::tuple.96" = type { %"struct.std::_Tuple_impl.97" }
%"struct.std::_Tuple_impl.97" = type { %"struct.std::_Head_base.100" }
%"struct.std::_Head_base.100" = type { ptr }
%"class.std::unique_ptr.101" = type { %"struct.std::__uniq_ptr_data.102" }
%"struct.std::__uniq_ptr_data.102" = type { %"class.std::__uniq_ptr_impl.103" }
%"class.std::__uniq_ptr_impl.103" = type { %"class.std::tuple.104" }
%"class.std::tuple.104" = type { %"struct.std::_Tuple_impl.105" }
%"struct.std::_Tuple_impl.105" = type { %"struct.std::_Head_base.108" }
%"struct.std::_Head_base.108" = type { ptr }
%"class.std::unique_ptr.109" = type { %"struct.std::__uniq_ptr_data.110" }
%"struct.std::__uniq_ptr_data.110" = type { %"class.std::__uniq_ptr_impl.111" }
%"class.std::__uniq_ptr_impl.111" = type { %"class.std::tuple.112" }
%"class.std::tuple.112" = type { %"struct.std::_Tuple_impl.113" }
%"struct.std::_Tuple_impl.113" = type { %"struct.std::_Head_base.116" }
%"struct.std::_Head_base.116" = type { ptr }
%"class.std::unique_ptr.117" = type { %"struct.std::__uniq_ptr_data.118" }
%"struct.std::__uniq_ptr_data.118" = type { %"class.std::__uniq_ptr_impl.119" }
%"class.std::__uniq_ptr_impl.119" = type { %"class.std::tuple.120" }
%"class.std::tuple.120" = type { %"struct.std::_Tuple_impl.121" }
%"struct.std::_Tuple_impl.121" = type { %"struct.std::_Head_base.124" }
%"struct.std::_Head_base.124" = type { ptr }
%"class.std::unique_ptr.125" = type { %"struct.std::__uniq_ptr_data.126" }
%"struct.std::__uniq_ptr_data.126" = type { %"class.std::__uniq_ptr_impl.127" }
%"class.std::__uniq_ptr_impl.127" = type { %"class.std::tuple.128" }
%"class.std::tuple.128" = type { %"struct.std::_Tuple_impl.129" }
%"struct.std::_Tuple_impl.129" = type { %"struct.std::_Head_base.132" }
%"struct.std::_Head_base.132" = type { ptr }
%"class.std::unique_ptr.133" = type { %"struct.std::__uniq_ptr_data.134" }
%"struct.std::__uniq_ptr_data.134" = type { %"class.std::__uniq_ptr_impl.135" }
%"class.std::__uniq_ptr_impl.135" = type { %"class.std::tuple.136" }
%"class.std::tuple.136" = type { %"struct.std::_Tuple_impl.137" }
%"struct.std::_Tuple_impl.137" = type { %"struct.std::_Head_base.140" }
%"struct.std::_Head_base.140" = type { ptr }
%"class.std::unique_ptr.141" = type { %"struct.std::__uniq_ptr_data.142" }
%"struct.std::__uniq_ptr_data.142" = type { %"class.std::__uniq_ptr_impl.143" }
%"class.std::__uniq_ptr_impl.143" = type { %"class.std::tuple.144" }
%"class.std::tuple.144" = type { %"struct.std::_Tuple_impl.145" }
%"struct.std::_Tuple_impl.145" = type { %"struct.std::_Head_base.148" }
%"struct.std::_Head_base.148" = type { ptr }
%"class.std::unique_ptr.149" = type { %"struct.std::__uniq_ptr_data.150" }
%"struct.std::__uniq_ptr_data.150" = type { %"class.std::__uniq_ptr_impl.151" }
%"class.std::__uniq_ptr_impl.151" = type { %"class.std::tuple.152" }
%"class.std::tuple.152" = type { %"struct.std::_Tuple_impl.153" }
%"struct.std::_Tuple_impl.153" = type { %"struct.std::_Head_base.156" }
%"struct.std::_Head_base.156" = type { ptr }
%"class.std::unique_ptr.157" = type { %"struct.std::__uniq_ptr_data.158" }
%"struct.std::__uniq_ptr_data.158" = type { %"class.std::__uniq_ptr_impl.159" }
%"class.std::__uniq_ptr_impl.159" = type { %"class.std::tuple.160" }
%"class.std::tuple.160" = type { %"struct.std::_Tuple_impl.161" }
%"struct.std::_Tuple_impl.161" = type { %"struct.std::_Head_base.164" }
%"struct.std::_Head_base.164" = type { ptr }
%"class.std::unique_ptr.165" = type { %"struct.std::__uniq_ptr_data.166" }
%"struct.std::__uniq_ptr_data.166" = type { %"class.std::__uniq_ptr_impl.167" }
%"class.std::__uniq_ptr_impl.167" = type { %"class.std::tuple.168" }
%"class.std::tuple.168" = type { %"struct.std::_Tuple_impl.169" }
%"struct.std::_Tuple_impl.169" = type { %"struct.std::_Head_base.172" }
%"struct.std::_Head_base.172" = type { ptr }
%"class.std::unique_ptr.173" = type { %"struct.std::__uniq_ptr_data.174" }
%"struct.std::__uniq_ptr_data.174" = type { %"class.std::__uniq_ptr_impl.175" }
%"class.std::__uniq_ptr_impl.175" = type { %"class.std::tuple.176" }
%"class.std::tuple.176" = type { %"struct.std::_Tuple_impl.177" }
%"struct.std::_Tuple_impl.177" = type { %"struct.std::_Head_base.180" }
%"struct.std::_Head_base.180" = type { ptr }
%"class.std::unique_ptr.181" = type { %"struct.std::__uniq_ptr_data.182" }
%"struct.std::__uniq_ptr_data.182" = type { %"class.std::__uniq_ptr_impl.183" }
%"class.std::__uniq_ptr_impl.183" = type { %"class.std::tuple.184" }
%"class.std::tuple.184" = type { %"struct.std::_Tuple_impl.185" }
%"struct.std::_Tuple_impl.185" = type { %"struct.std::_Head_base.188" }
%"struct.std::_Head_base.188" = type { ptr }
%"class.std::unique_ptr.189" = type { %"struct.std::__uniq_ptr_data.190" }
%"struct.std::__uniq_ptr_data.190" = type { %"class.std::__uniq_ptr_impl.191" }
%"class.std::__uniq_ptr_impl.191" = type { %"class.std::tuple.192" }
%"class.std::tuple.192" = type { %"struct.std::_Tuple_impl.193" }
%"struct.std::_Tuple_impl.193" = type { %"struct.std::_Head_base.196" }
%"struct.std::_Head_base.196" = type { ptr }
%"class.std::unique_ptr.197" = type { %"struct.std::__uniq_ptr_data.198" }
%"struct.std::__uniq_ptr_data.198" = type { %"class.std::__uniq_ptr_impl.199" }
%"class.std::__uniq_ptr_impl.199" = type { %"class.std::tuple.200" }
%"class.std::tuple.200" = type { %"struct.std::_Tuple_impl.201" }
%"struct.std::_Tuple_impl.201" = type { %"struct.std::_Head_base.204" }
%"struct.std::_Head_base.204" = type { ptr }
%"class.std::unique_ptr.205" = type { %"struct.std::__uniq_ptr_data.206" }
%"struct.std::__uniq_ptr_data.206" = type { %"class.std::__uniq_ptr_impl.207" }
%"class.std::__uniq_ptr_impl.207" = type { %"class.std::tuple.208" }
%"class.std::tuple.208" = type { %"struct.std::_Tuple_impl.209" }
%"struct.std::_Tuple_impl.209" = type { %"struct.std::_Head_base.212" }
%"struct.std::_Head_base.212" = type { ptr }
%"class.std::unique_ptr.213" = type { %"struct.std::__uniq_ptr_data.214" }
%"struct.std::__uniq_ptr_data.214" = type { %"class.std::__uniq_ptr_impl.215" }
%"class.std::__uniq_ptr_impl.215" = type { %"class.std::tuple.216" }
%"class.std::tuple.216" = type { %"struct.std::_Tuple_impl.217" }
%"struct.std::_Tuple_impl.217" = type { %"struct.std::_Head_base.220" }
%"struct.std::_Head_base.220" = type { ptr }
%"class.std::unique_ptr.221" = type { %"struct.std::__uniq_ptr_data.222" }
%"struct.std::__uniq_ptr_data.222" = type { %"class.std::__uniq_ptr_impl.223" }
%"class.std::__uniq_ptr_impl.223" = type { %"class.std::tuple.224" }
%"class.std::tuple.224" = type { %"struct.std::_Tuple_impl.225" }
%"struct.std::_Tuple_impl.225" = type { %"struct.std::_Head_base.228" }
%"struct.std::_Head_base.228" = type { ptr }
%"class.std::unique_ptr.229" = type { %"struct.std::__uniq_ptr_data.230" }
%"struct.std::__uniq_ptr_data.230" = type { %"class.std::__uniq_ptr_impl.231" }
%"class.std::__uniq_ptr_impl.231" = type { %"class.std::tuple.232" }
%"class.std::tuple.232" = type { %"struct.std::_Tuple_impl.233" }
%"struct.std::_Tuple_impl.233" = type { %"struct.std::_Head_base.236" }
%"struct.std::_Head_base.236" = type { ptr }
%"class.std::unique_ptr.237" = type { %"struct.std::__uniq_ptr_data.238" }
%"struct.std::__uniq_ptr_data.238" = type { %"class.std::__uniq_ptr_impl.239" }
%"class.std::__uniq_ptr_impl.239" = type { %"class.std::tuple.240" }
%"class.std::tuple.240" = type { %"struct.std::_Tuple_impl.241" }
%"struct.std::_Tuple_impl.241" = type { %"struct.std::_Head_base.244" }
%"struct.std::_Head_base.244" = type { ptr }
%"class.std::unique_ptr.245" = type { %"struct.std::__uniq_ptr_data.246" }
%"struct.std::__uniq_ptr_data.246" = type { %"class.std::__uniq_ptr_impl.247" }
%"class.std::__uniq_ptr_impl.247" = type { %"class.std::tuple.248" }
%"class.std::tuple.248" = type { %"struct.std::_Tuple_impl.249" }
%"struct.std::_Tuple_impl.249" = type { %"struct.std::_Head_base.252" }
%"struct.std::_Head_base.252" = type { ptr }
%"class.cvc5::internal::theory::quantifiers::MbqiEnum" = type { %"class.cvc5::internal::EnvObj", %"class.std::map.436", ptr, %"class.cvc5::internal::Options" }
%"class.cvc5::internal::EnvObj" = type { ptr, ptr }
%"class.std::map.436" = type { %"class.std::_Rb_tree.437" }
%"class.std::_Rb_tree.437" = type { %"struct.std::_Rb_tree<cvc5::internal::NodeTemplate<true>, std::pair<const cvc5::internal::NodeTemplate<true>, cvc5::internal::theory::quantifiers::MQuantInfo>, std::_Select1st<std::pair<const cvc5::internal::NodeTemplate<true>, cvc5::internal::theory::quantifiers::MQuantInfo>>, std::less<cvc5::internal::NodeTemplate<true>>>::_Rb_tree_impl" }
%"struct.std::_Rb_tree<cvc5::internal::NodeTemplate<true>, std::pair<const cvc5::internal::NodeTemplate<true>, cvc5::internal::theory::quantifiers::MQuantInfo>, std::_Select1st<std::pair<const cvc5::internal::NodeTemplate<true>, cvc5::internal::theory::quantifiers::MQuantInfo>>, std::less<cvc5::internal::NodeTemplate<true>>>::_Rb_tree_impl" = type { [8 x i8], %"struct.std::_Rb_tree_header" }
%"struct.std::_Rb_tree_header" = type { %"struct.std::_Rb_tree_node_base", i64 }
%"struct.std::_Rb_tree_node_base" = type { i32, ptr, ptr, ptr }

; Function Attrs: noinline noreturn nounwind uwtable
define linkonce_odr hidden void @__clang_call_terminate(ptr noundef %0) #13 comdat {
  %2 = call ptr @__cxa_begin_catch(ptr %0) #3
  call void @_ZSt9terminatev() #23
  unreachable
}

; Function Attrs: mustprogress nounwind uwtable
define linkonce_odr hidden void @_ZNSt15_Rb_tree_header8_M_resetEv(ptr noundef nonnull align 8 dereferenceable(40) %0) #7 comdat align 2 {
  %2 = alloca ptr, align 8
  store ptr %0, ptr %2, align 8, !tbaa !509
  %3 = load ptr, ptr %2, align 8
  %4 = getelementptr inbounds nuw %"struct.std::_Rb_tree_header", ptr %3, i32 0, i32 0
  %5 = getelementptr inbounds nuw %"struct.std::_Rb_tree_node_base", ptr %4, i32 0, i32 1
  store ptr null, ptr %5, align 8, !tbaa !514
  %6 = getelementptr inbounds nuw %"struct.std::_Rb_tree_header", ptr %3, i32 0, i32 0
  %7 = getelementptr inbounds nuw %"struct.std::_Rb_tree_header", ptr %3, i32 0, i32 0
  %8 = getelementptr inbounds nuw %"struct.std::_Rb_tree_node_base", ptr %7, i32 0, i32 2
  store ptr %6, ptr %8, align 8, !tbaa !515
  %9 = getelementptr inbounds nuw %"struct.std::_Rb_tree_header", ptr %3, i32 0, i32 0
  %10 = getelementptr inbounds nuw %"struct.std::_Rb_tree_header", ptr %3, i32 0, i32 0
  %11 = getelementptr inbounds nuw %"struct.std::_Rb_tree_node_base", ptr %10, i32 0, i32 3
  store ptr %9, ptr %11, align 8, !tbaa !516
  %12 = getelementptr inbounds nuw %"struct.std::_Rb_tree_header", ptr %3, i32 0, i32 1
  store i64 0, ptr %12, align 8, !tbaa !517
  ret void
}

; Function Attrs: mustprogress nounwind uwtable
define linkonce_odr hidden void @_ZNSt15__new_allocatorISt13_Rb_tree_nodeISt4pairIKN4cvc58internal12NodeTemplateILb1EEENS3_6theory11quantifiers10MQuantInfoEEEEC2Ev(ptr noundef nonnull align 1 dereferenceable(1) %0) unnamed_addr #7 comdat align 2 {
  %2 = alloca ptr, align 8
  store ptr %0, ptr %2, align 8, !tbaa !512
  ret void
}

; Function Attrs: mustprogress nounwind uwtable
define linkonce_odr hidden void @_ZNSt15_Rb_tree_headerC2Ev(ptr noundef nonnull align 8 dereferenceable(40) %0) unnamed_addr #7 comdat align 2 personality ptr @__gxx_personality_v0 {
  %2 = alloca ptr, align 8
  store ptr %0, ptr %2, align 8, !tbaa !509
  %3 = load ptr, ptr %2, align 8
  %4 = getelementptr inbounds nuw %"struct.std::_Rb_tree_header", ptr %3, i32 0, i32 0
  %5 = getelementptr inbounds nuw %"struct.std::_Rb_tree_node_base", ptr %4, i32 0, i32 0
  store i32 0, ptr %5, align 8, !tbaa !511
  invoke void @_ZNSt15_Rb_tree_header8_M_resetEv(ptr noundef nonnull align 8 dereferenceable(40) %3)
          to label %6 unwind label %7

6:                                                ; preds = %1
  ret void

7:                                                ; preds = %1
  %8 = landingpad { ptr, i32 }
          catch ptr null
  %9 = extractvalue { ptr, i32 } %8, 0
  call void @__clang_call_terminate(ptr %9) #23
  unreachable
}

; Function Attrs: mustprogress nounwind uwtable
define linkonce_odr hidden void @_ZNSt20_Rb_tree_key_compareISt4lessIN4cvc58internal12NodeTemplateILb1EEEEEC2Ev(ptr noundef nonnull align 1 dereferenceable(1) %0) unnamed_addr #7 comdat align 2 {
  %2 = alloca ptr, align 8
  store ptr %0, ptr %2, align 8, !tbaa !507
  ret void
}

; Function Attrs: mustprogress nounwind uwtable
define linkonce_odr hidden void @_ZNSaISt13_Rb_tree_nodeISt4pairIKN4cvc58internal12NodeTemplateILb1EEENS2_6theory11quantifiers10MQuantInfoEEEEC2Ev(ptr noundef nonnull align 1 dereferenceable(1) %0) unnamed_addr #7 comdat align 2 {
  %2 = alloca ptr, align 8
  store ptr %0, ptr %2, align 8, !tbaa !505
  %3 = load ptr, ptr %2, align 8
  call void @_ZNSt15__new_allocatorISt13_Rb_tree_nodeISt4pairIKN4cvc58internal12NodeTemplateILb1EEENS3_6theory11quantifiers10MQuantInfoEEEEC2Ev(ptr noundef nonnull align 1 dereferenceable(1) %3) #3
  ret void
}

; Function Attrs: mustprogress nounwind uwtable
define linkonce_odr hidden void @_ZNSt8_Rb_treeIN4cvc58internal12NodeTemplateILb1EEESt4pairIKS3_NS1_6theory11quantifiers10MQuantInfoEESt10_Select1stIS9_ESt4lessIS3_ESaIS9_EE13_Rb_tree_implISD_Lb1EEC2Ev(ptr noundef nonnull align 8 dereferenceable(48) %0) unnamed_addr #7 comdat align 2 {
  %2 = alloca ptr, align 8
  store ptr %0, ptr %2, align 8, !tbaa !503
  %3 = load ptr, ptr %2, align 8
  call void @_ZNSaISt13_Rb_tree_nodeISt4pairIKN4cvc58internal12NodeTemplateILb1EEENS2_6theory11quantifiers10MQuantInfoEEEEC2Ev(ptr noundef nonnull align 1 dereferenceable(1) %3) #3
  call void @_ZNSt20_Rb_tree_key_compareISt4lessIN4cvc58internal12NodeTemplateILb1EEEEEC2Ev(ptr noundef nonnull align 1 dereferenceable(1) %3) #3
  %4 = getelementptr inbounds i8, ptr %3, i64 8
  call void @_ZNSt15_Rb_tree_headerC2Ev(ptr noundef nonnull align 8 dereferenceable(40) %4) #3
  ret void
}

; Function Attrs: mustprogress nounwind uwtable
define linkonce_odr hidden void @_ZNSt8_Rb_treeIN4cvc58internal12NodeTemplateILb1EEESt4pairIKS3_NS1_6theory11quantifiers10MQuantInfoEESt10_Select1stIS9_ESt4lessIS3_ESaIS9_EEC2Ev(ptr noundef nonnull align 8 dereferenceable(48) %0) unnamed_addr #7 comdat align 2 {
  %2 = alloca ptr, align 8
  store ptr %0, ptr %2, align 8, !tbaa !501
  %3 = load ptr, ptr %2, align 8
  %4 = getelementptr inbounds nuw %"class.std::_Rb_tree.437", ptr %3, i32 0, i32 0
  call void @_ZNSt8_Rb_treeIN4cvc58internal12NodeTemplateILb1EEESt4pairIKS3_NS1_6theory11quantifiers10MQuantInfoEESt10_Select1stIS9_ESt4lessIS3_ESaIS9_EE13_Rb_tree_implISD_Lb1EEC2Ev(ptr noundef nonnull align 8 dereferenceable(48) %4) #3
  ret void
}

; Function Attrs: mustprogress nounwind uwtable
define linkonce_odr hidden void @_ZN4cvc58internal6EnvObjD2Ev(ptr noundef nonnull align 8 dereferenceable(16) %0) unnamed_addr #7 comdat align 2 {
  %2 = alloca ptr, align 8
  store ptr %0, ptr %2, align 8, !tbaa !365
  ret void
}

; Function Attrs: mustprogress nounwind uwtable
define linkonce_odr hidden void @_ZNSt3mapIN4cvc58internal12NodeTemplateILb1EEENS1_6theory11quantifiers10MQuantInfoESt4lessIS3_ESaISt4pairIKS3_S6_EEEC2Ev(ptr noundef nonnull align 8 dereferenceable(48) %0) unnamed_addr #7 comdat align 2 {
  %2 = alloca ptr, align 8
  store ptr %0, ptr %2, align 8, !tbaa !363
  %3 = load ptr, ptr %2, align 8
  %4 = getelementptr inbounds nuw %"class.std::map.436", ptr %3, i32 0, i32 0
  call void @_ZNSt8_Rb_treeIN4cvc58internal12NodeTemplateILb1EEESt4pairIKS3_NS1_6theory11quantifiers10MQuantInfoEESt10_Select1stIS9_ESt4lessIS3_ESaIS9_EEC2Ev(ptr noundef nonnull align 8 dereferenceable(48) %4) #3
  ret void
}

; Function Attrs: mustprogress uwtable
define hidden void @_ZN4cvc58internal6theory11quantifiers8MbqiEnumC2ERNS0_3EnvERNS2_16InstStrategyMbqiE(ptr noundef nonnull align 8 dereferenceable(480) %0, ptr noundef nonnull align 8 dereferenceable(696) %1, ptr noundef nonnull align 8 dereferenceable(632) %2) unnamed_addr #4 align 2 personality ptr @__gxx_personality_v0 {
  %4 = alloca ptr, align 8
  %5 = alloca ptr, align 8
  %6 = alloca ptr, align 8
  %7 = alloca ptr, align 8
  %8 = alloca i32, align 4
  store ptr %0, ptr %4, align 8, !tbaa !361
  store ptr %1, ptr %5, align 8, !tbaa !8
  store ptr %2, ptr %6, align 8, !tbaa !329
  %9 = load ptr, ptr %4, align 8
  %10 = load ptr, ptr %5, align 8, !tbaa !8
  call void @_ZN4cvc58internal6EnvObjC2ERNS0_3EnvE(ptr noundef nonnull align 8 dereferenceable(16) %9, ptr noundef nonnull align 8 dereferenceable(696) %10)
  store ptr getelementptr inbounds inrange(-16, 16) ({ [4 x ptr] }, ptr @_ZTVN4cvc58internal6theory11quantifiers8MbqiEnumE, i32 0, i32 0, i32 2), ptr %9, align 8, !tbaa !306
  %11 = getelementptr inbounds nuw %"class.cvc5::internal::theory::quantifiers::MbqiEnum", ptr %9, i32 0, i32 1
  call void @_ZNSt3mapIN4cvc58internal12NodeTemplateILb1EEENS1_6theory11quantifiers10MQuantInfoESt4lessIS3_ESaISt4pairIKS3_S6_EEEC2Ev(ptr noundef nonnull align 8 dereferenceable(48) %11) #3
  %12 = getelementptr inbounds nuw %"class.cvc5::internal::theory::quantifiers::MbqiEnum", ptr %9, i32 0, i32 2
  %13 = load ptr, ptr %6, align 8, !tbaa !329
  store ptr %13, ptr %12, align 8, !tbaa !329
  %14 = getelementptr inbounds nuw %"class.cvc5::internal::theory::quantifiers::MbqiEnum", ptr %9, i32 0, i32 3
  invoke void @_ZN4cvc58internal7OptionsC1Ev(ptr noundef nonnull align 8 dereferenceable(408) %14)
          to label %15 unwind label %22

15:                                               ; preds = %3
  %16 = getelementptr inbounds nuw %"class.cvc5::internal::theory::quantifiers::MbqiEnum", ptr %9, i32 0, i32 3
  %17 = invoke noundef nonnull align 8 dereferenceable(408) ptr @_ZNK4cvc58internal6EnvObj7optionsEv(ptr noundef nonnull align 8 dereferenceable(16) %9)
          to label %18 unwind label %26

18:                                               ; preds = %15
  invoke void @_ZN4cvc58internal7Options10copyValuesERKS1_(ptr noundef nonnull align 8 dereferenceable(408) %16, ptr noundef nonnull align 8 dereferenceable(408) %17)
          to label %19 unwind label %26

19:                                               ; preds = %18
  %20 = getelementptr inbounds nuw %"class.cvc5::internal::theory::quantifiers::MbqiEnum", ptr %9, i32 0, i32 3
  invoke void @_ZN4cvc58internal3smt11SetDefaults15disableCheckingERNS0_7OptionsE(ptr noundef nonnull align 8 dereferenceable(408) %20)
          to label %21 unwind label %26

21:                                               ; preds = %19
  ret void

22:                                               ; preds = %3
  %23 = landingpad { ptr, i32 }
          cleanup
  %24 = extractvalue { ptr, i32 } %23, 0
  store ptr %24, ptr %7, align 8
  %25 = extractvalue { ptr, i32 } %23, 1
  store i32 %25, ptr %8, align 4
  br label %30

26:                                               ; preds = %19, %18, %15
  %27 = landingpad { ptr, i32 }
          cleanup
  %28 = extractvalue { ptr, i32 } %27, 0
  store ptr %28, ptr %7, align 8
  %29 = extractvalue { ptr, i32 } %27, 1
  store i32 %29, ptr %8, align 4
  call void @_ZN4cvc58internal7OptionsD1Ev(ptr noundef nonnull align 8 dereferenceable(408) %14) #3
  br label %30

30:                                               ; preds = %26, %22
  call void @_ZNSt3mapIN4cvc58internal12NodeTemplateILb1EEENS1_6theory11quantifiers10MQuantInfoESt4lessIS3_ESaISt4pairIKS3_S6_EEED2Ev(ptr noundef nonnull align 8 dereferenceable(48) %11) #3
  call void @_ZN4cvc58internal6EnvObjD2Ev(ptr noundef nonnull align 8 dereferenceable(16) %9) #3
  br label %31

31:                                               ; preds = %30
  %32 = load ptr, ptr %7, align 8
  %33 = load i32, ptr %8, align 4
  %34 = insertvalue { ptr, i32 } poison, ptr %32, 0
  %35 = insertvalue { ptr, i32 } %34, i32 %33, 1
  resume { ptr, i32 } %35
}