; Function Attrs: mustprogress uwtable
define hidden void @_ZN4cvc58internal6theory11quantifiers8MbqiEnumC2ERNS0_3EnvERNS2_16InstStrategyMbqiE(ptr noundef nonnull align 8 dereferenceable(480) %0, ptr noundef nonnull align 8 dereferenceable(696) %1, ptr noundef nonnull align 8 dereferenceable(632) %2) unnamed_addr #3 align 2 personality ptr @__gxx_personality_v0 {
  tail call void @_ZN4cvc58internal6EnvObjC2ERNS0_3EnvE(ptr noundef nonnull align 8 dereferenceable(16) %0, ptr noundef nonnull align 8 dereferenceable(696) %1)
  store ptr getelementptr inbounds nuw inrange(-16, 16) (i8, ptr @_ZTVN4cvc58internal6theory11quantifiers8MbqiEnumE, i64 16), ptr %0, align 8, !tbaa !283
  %4 = getelementptr inbounds nuw i8, ptr %0, i64 24
  store i32 0, ptr %4, align 8, !tbaa !341
  %5 = getelementptr inbounds nuw i8, ptr %0, i64 32
  store ptr null, ptr %5, align 8, !tbaa !346
  %6 = getelementptr inbounds nuw i8, ptr %0, i64 40
  store ptr %4, ptr %6, align 8, !tbaa !347
  %7 = getelementptr inbounds nuw i8, ptr %0, i64 48
  store ptr %4, ptr %7, align 8, !tbaa !348
  %8 = getelementptr inbounds nuw i8, ptr %0, i64 56
  store i64 0, ptr %8, align 8, !tbaa !349
  %9 = getelementptr inbounds nuw i8, ptr %0, i64 64
  store ptr %2, ptr %9, align 8, !tbaa !350
  %10 = getelementptr inbounds nuw i8, ptr %0, i64 72
  invoke void @_ZN4cvc58internal7OptionsC1Ev(ptr noundef nonnull align 8 dereferenceable(408) %10)
          to label %11 unwind label %16

11:                                               ; preds = %3
  %12 = invoke noundef nonnull align 8 dereferenceable(408) ptr @_ZNK4cvc58internal6EnvObj7optionsEv(ptr noundef nonnull align 8 dereferenceable(16) %0)
          to label %13 unwind label %18

13:                                               ; preds = %11
  invoke void @_ZN4cvc58internal7Options10copyValuesERKS1_(ptr noundef nonnull align 8 dereferenceable(408) %10, ptr noundef nonnull align 8 dereferenceable(408) %12)
          to label %14 unwind label %18

14:                                               ; preds = %13
  invoke void @_ZN4cvc58internal3smt11SetDefaults15disableCheckingERNS0_7OptionsE(ptr noundef nonnull align 8 dereferenceable(408) %10)
          to label %15 unwind label %18

15:                                               ; preds = %14
  ret void

16:                                               ; preds = %3
  %17 = landingpad { ptr, i32 }
          cleanup
  br label %20

18:                                               ; preds = %14, %13, %11
  %19 = landingpad { ptr, i32 }
          cleanup
  tail call void @_ZN4cvc58internal7OptionsD1Ev(ptr noundef nonnull align 8 dereferenceable(408) %10) #23
  br label %20

20:                                               ; preds = %18, %16
  %.pn = phi { ptr, i32 } [ %19, %18 ], [ %17, %16 ]
  %21 = getelementptr inbounds nuw i8, ptr %0, i64 16
  tail call void @_ZNSt3mapIN4cvc58internal12NodeTemplateILb1EEENS1_6theory11quantifiers10MQuantInfoESt4lessIS3_ESaISt4pairIKS3_S6_EEED2Ev(ptr noundef nonnull align 8 dereferenceable(48) %21) #23
  resume { ptr, i32 } %.pn
}